; Function Attrs: mustprogress nofree norecurse nosync nounwind memory(readwrite, inaccessiblemem: none) uwtable
define void @_ZN8facebook4yoga4Node12replaceChildEPS1_S2_(ptr noundef nonnull align 8 captures(none) dereferenceable(584) %0, ptr noundef readonly captures(address) %1, ptr noundef %2) local_unnamed_addr #5 align 2 {
  %4 = getelementptr inbounds nuw i8, ptr %1, i64 40
  %5 = load i32, ptr %4, align 8
  %6 = and i32 %5, 201326592
  %7 = icmp eq i32 %6, 134217728
  %8 = getelementptr inbounds nuw i8, ptr %2, i64 40
  %9 = load i32, ptr %8, align 8
  %10 = and i32 %9, 201326592
  %.not = icmp eq i32 %10, 134217728
  br i1 %7, label %11, label %12

11:                                               ; preds = %3
  br i1 %.not, label %.thread, label %.thread.sink.split

12:                                               ; preds = %3
  br i1 %.not, label %.thread.sink.split, label %.thread

.thread.sink.split:                               ; preds = %12, %11
  %.sink9 = phi i64 [ -1, %11 ], [ 1, %12 ]
  %13 = getelementptr inbounds nuw i8, ptr %0, i64 520
  %14 = load i64, ptr %13, align 8, !tbaa !89
  %15 = add i64 %14, %.sink9
  store i64 %15, ptr %13, align 8, !tbaa !89
  br label %.thread

.thread:                                          ; preds = %.thread.sink.split, %11, %12
  %16 = getelementptr inbounds nuw i8, ptr %0, i64 536
  %17 = load ptr, ptr %16, align 8, !tbaa !93
  %18 = getelementptr inbounds nuw i8, ptr %0, i64 544
  %19 = load ptr, ptr %18, align 8, !tbaa !93
  %20 = icmp eq ptr %17, %19
  br i1 %20, label %_ZSt7replaceIN9__gnu_cxx17__normal_iteratorIPPN8facebook4yoga4NodeESt6vectorIS5_SaIS5_EEEES5_EvT_SB_RKT0_SE_.exit, label %.lr.ph.i

.lr.ph.i:                                         ; preds = %.thread, %24
  %.sroa.02.06.i = phi ptr [ %25, %24 ], [ %17, %.thread ]
  %21 = load ptr, ptr %.sroa.02.06.i, align 8, !tbaa !94
  %22 = icmp eq ptr %21, %1
  br i1 %22, label %23, label %24

23:                                               ; preds = %.lr.ph.i
  store ptr %2, ptr %.sroa.02.06.i, align 8, !tbaa !94
  br label %24

24:                                               ; preds = %23, %.lr.ph.i
  %25 = getelementptr inbounds nuw i8, ptr %.sroa.02.06.i, i64 8
  %26 = icmp eq ptr %25, %19
  br i1 %26, label %_ZSt7replaceIN9__gnu_cxx17__normal_iteratorIPPN8facebook4yoga4NodeESt6vectorIS5_SaIS5_EEEES5_EvT_SB_RKT0_SE_.exit, label %.lr.ph.i, !llvm.loop !95

_ZSt7replaceIN9__gnu_cxx17__normal_iteratorIPPN8facebook4yoga4NodeESt6vectorIS5_SaIS5_EEEES5_EvT_SB_RKT0_SE_.exit: ; preds = %24, %.thread
  ret void
}